target datalayout = "e-m:e-p270:32:32-p271:32:32-p272:64:64-i64:64-i128:128-f80:128-n8:16:32:64-S128"
target triple = "x86_64-pc-linux-gnu"

%struct.PJ_XY = type { double, double }
%struct.PJ_LP = type { double, double }

; Function Attrs: mustprogress uwtable
define internal { double, double } @_ZL23peirce_q_square_inverse5PJ_XYP8PJconsts(double %0, double %1, ptr noundef %2) #0 {
  %4 = alloca %struct.PJ_LP, align 8
  %5 = alloca %struct.PJ_XY, align 8
  %6 = alloca ptr, align 8
  %7 = alloca %struct.PJ_LP, align 8
  %8 = alloca double, align 8
  %9 = alloca %struct.PJ_XY, align 8
  %10 = alloca %struct.PJ_LP, align 8
  %11 = getelementptr inbounds { double, double }, ptr %5, i32 0, i32 0
  store double %0, ptr %11, align 8
  %12 = getelementptr inbounds { double, double }, ptr %5, i32 0, i32 1
  store double %1, ptr %12, align 8
  store ptr %2, ptr %6, align 8
  %13 = getelementptr inbounds %struct.PJ_LP, ptr %7, i32 0, i32 1
  store double 0.000000e+00, ptr %13, align 8
  %14 = getelementptr inbounds %struct.PJ_XY, ptr %5, i32 0, i32 0
  %15 = load double, ptr %14, align 8
  %16 = fcmp oeq double %15, 0.000000e+00
  br i1 %16, label %17, label %30

17:                                               ; preds = %3
  %18 = getelementptr inbounds %struct.PJ_XY, ptr %5, i32 0, i32 1
  %19 = load double, ptr %18, align 8
  %20 = fcmp olt double %19, 0.000000e+00
  br i1 %20, label %21, label %30

21:                                               ; preds = %17
  %22 = getelementptr inbounds %struct.PJ_LP, ptr %7, i32 0, i32 0
  store double 0xBFE921FB54442D18, ptr %22, align 8
  %23 = getelementptr inbounds %struct.PJ_XY, ptr %5, i32 0, i32 1
  %24 = load double, ptr %23, align 8
  %25 = call double @llvm.fabs.f64(double %24)
  %26 = fcmp olt double %25, 0x4004F9F953203CD9
  br i1 %26, label %27, label %29

27:                                               ; preds = %21
  %28 = getelementptr inbounds %struct.PJ_LP, ptr %7, i32 0, i32 1
  store double 0x3FE921FB54442D18, ptr %28, align 8
  br label %29

29:                                               ; preds = %27, %21
  br label %126

30:                                               ; preds = %17, %3
  %31 = getelementptr inbounds %struct.PJ_XY, ptr %5, i32 0, i32 0
  %32 = load double, ptr %31, align 8
  %33 = fcmp ogt double %32, 0.000000e+00
  br i1 %33, label %34, label %41

34:                                               ; preds = %30
  %35 = getelementptr inbounds %struct.PJ_XY, ptr %5, i32 0, i32 1
  %36 = load double, ptr %35, align 8
  %37 = call double @llvm.fabs.f64(double %36)
  %38 = fcmp olt double %37, 0x3E7AD7F29ABCAF48
  br i1 %38, label %39, label %41

39:                                               ; preds = %34
  %40 = getelementptr inbounds %struct.PJ_LP, ptr %7, i32 0, i32 0
  store double 0x3FE921FB54442D18, ptr %40, align 8
  br label %125

41:                                               ; preds = %34, %30
  %42 = getelementptr inbounds %struct.PJ_XY, ptr %5, i32 0, i32 0
  %43 = load double, ptr %42, align 8
  %44 = fcmp olt double %43, 0.000000e+00
  br i1 %44, label %45, label %56

45:                                               ; preds = %41
  %46 = getelementptr inbounds %struct.PJ_XY, ptr %5, i32 0, i32 1
  %47 = load double, ptr %46, align 8
  %48 = call double @llvm.fabs.f64(double %47)
  %49 = fcmp olt double %48, 0x3E7AD7F29ABCAF48
  br i1 %49, label %50, label %56

50:                                               ; preds = %45
  %51 = getelementptr inbounds %struct.PJ_LP, ptr %7, i32 0, i32 0
  store double 0xC002D97C7F3321D2, ptr %51, align 8
  %52 = getelementptr inbounds %struct.PJ_XY, ptr %5, i32 0, i32 0
  %53 = load double, ptr %52, align 8
  %54 = call double @llvm.fmuladd.f64(double 0x3FE32B9515D17E9A, double %53, double 0x3FF921FB54442D18)
  %55 = getelementptr inbounds %struct.PJ_LP, ptr %7, i32 0, i32 1
  store double %54, ptr %55, align 8
  br label %124

56:                                               ; preds = %45, %41
  %57 = getelementptr inbounds %struct.PJ_XY, ptr %5, i32 0, i32 0
  %58 = load double, ptr %57, align 8
  %59 = call double @llvm.fabs.f64(double %58)
  %60 = fcmp olt double %59, 0x3E7AD7F29ABCAF48
  br i1 %60, label %61, label %67

61:                                               ; preds = %56
  %62 = getelementptr inbounds %struct.PJ_XY, ptr %5, i32 0, i32 1
  %63 = load double, ptr %62, align 8
  %64 = fcmp ogt double %63, 0.000000e+00
  br i1 %64, label %65, label %67

65:                                               ; preds = %61
  %66 = getelementptr inbounds %struct.PJ_LP, ptr %7, i32 0, i32 0
  store double 0x4002D97C7F3321D2, ptr %66, align 8
  br label %123

67:                                               ; preds = %61, %56
  %68 = getelementptr inbounds %struct.PJ_XY, ptr %5, i32 0, i32 0
  %69 = load double, ptr %68, align 8
  %70 = fcmp oge double %69, 0.000000e+00
  br i1 %70, label %71, label %87

71:                                               ; preds = %67
  %72 = getelementptr inbounds %struct.PJ_XY, ptr %5, i32 0, i32 1
  %73 = load double, ptr %72, align 8
  %74 = fcmp ole double %73, 0.000000e+00
  br i1 %74, label %75, label %87

75:                                               ; preds = %71
  %76 = getelementptr inbounds %struct.PJ_LP, ptr %7, i32 0, i32 0
  store double 0.000000e+00, ptr %76, align 8
  %77 = getelementptr inbounds %struct.PJ_XY, ptr %5, i32 0, i32 0
  %78 = load double, ptr %77, align 8
  %79 = fcmp oeq double %78, 0.000000e+00
  br i1 %79, label %80, label %86

80:                                               ; preds = %75
  %81 = getelementptr inbounds %struct.PJ_XY, ptr %5, i32 0, i32 1
  %82 = load double, ptr %81, align 8
  %83 = fcmp oeq double %82, 0.000000e+00
  br i1 %83, label %84, label %86

84:                                               ; preds = %80
  %85 = getelementptr inbounds %struct.PJ_LP, ptr %7, i32 0, i32 1
  store double 0x3FF921FB54442D18, ptr %85, align 8
  call void @llvm.memcpy.p0.p0.i64(ptr align 8 %4, ptr align 8 %7, i64 16, i1 false)
  br label %141

86:                                               ; preds = %80, %75
  br label %122

87:                                               ; preds = %71, %67
  %88 = getelementptr inbounds %struct.PJ_XY, ptr %5, i32 0, i32 0
  %89 = load double, ptr %88, align 8
  %90 = fcmp oge double %89, 0.000000e+00
  br i1 %90, label %91, label %97

91:                                               ; preds = %87
  %92 = getelementptr inbounds %struct.PJ_XY, ptr %5, i32 0, i32 1
  %93 = load double, ptr %92, align 8
  %94 = fcmp oge double %93, 0.000000e+00
  br i1 %94, label %95, label %97

95:                                               ; preds = %91
  %96 = getelementptr inbounds %struct.PJ_LP, ptr %7, i32 0, i32 0
  store double 0x3FF921FB54442D18, ptr %96, align 8
  br label %121

97:                                               ; preds = %91, %87
  %98 = getelementptr inbounds %struct.PJ_XY, ptr %5, i32 0, i32 0
  %99 = load double, ptr %98, align 8
  %100 = fcmp ole double %99, 0.000000e+00
  br i1 %100, label %101, label %118

101:                                              ; preds = %97
  %102 = getelementptr inbounds %struct.PJ_XY, ptr %5, i32 0, i32 1
  %103 = load double, ptr %102, align 8
  %104 = fcmp oge double %103, 0.000000e+00
  br i1 %104, label %105, label %118

105:                                              ; preds = %101
  %106 = getelementptr inbounds %struct.PJ_XY, ptr %5, i32 0, i32 0
  %107 = load double, ptr %106, align 8
  %108 = call double @llvm.fabs.f64(double %107)
  %109 = getelementptr inbounds %struct.PJ_XY, ptr %5, i32 0, i32 1
  %110 = load double, ptr %109, align 8
  %111 = call double @llvm.fabs.f64(double %110)
  %112 = fcmp olt double %108, %111
  br i1 %112, label %113, label %115

113:                                              ; preds = %105
  %114 = getelementptr inbounds %struct.PJ_LP, ptr %7, i32 0, i32 0
  store double 0x40069E9565708EFC, ptr %114, align 8
  br label %117

115:                                              ; preds = %105
  %116 = getelementptr inbounds %struct.PJ_LP, ptr %7, i32 0, i32 0
  store double 0xC0069E9565708EFC, ptr %116, align 8
  br label %117

117:                                              ; preds = %115, %113
  br label %120

118:                                              ; preds = %101, %97
  %119 = getelementptr inbounds %struct.PJ_LP, ptr %7, i32 0, i32 0
  store double 0xBFF921FB54442D18, ptr %119, align 8
  br label %120

120:                                              ; preds = %118, %117
  br label %121

121:                                              ; preds = %120, %95
  br label %122

122:                                              ; preds = %121, %86
  br label %123

123:                                              ; preds = %122, %65
  br label %124

124:                                              ; preds = %123, %50
  br label %125

125:                                              ; preds = %124, %39
  br label %126

126:                                              ; preds = %125, %29
  store double 1.000000e-10, ptr %8, align 8
  call void @llvm.memcpy.p0.p0.i64(ptr align 8 %9, ptr align 8 %5, i64 16, i1 false)
  %127 = load ptr, ptr %6, align 8
  call void @llvm.memcpy.p0.p0.i64(ptr align 8 %10, ptr align 8 %7, i64 16, i1 false)
  %128 = getelementptr inbounds { double, double }, ptr %9, i32 0, i32 0
  %129 = load double, ptr %128, align 8
  %130 = getelementptr inbounds { double, double }, ptr %9, i32 0, i32 1
  %131 = load double, ptr %130, align 8
  %132 = getelementptr inbounds { double, double }, ptr %10, i32 0, i32 0
  %133 = load double, ptr %132, align 8
  %134 = getelementptr inbounds { double, double }, ptr %10, i32 0, i32 1
  %135 = load double, ptr %134, align 8
  %136 = call { double, double } @_Z21pj_generic_inverse_2d5PJ_XYP8PJconsts5PJ_LPd(double %129, double %131, ptr noundef %127, double %133, double %135, double noundef 1.000000e-10)
  %137 = getelementptr inbounds { double, double }, ptr %4, i32 0, i32 0
  %138 = extractvalue { double, double } %136, 0
  store double %138, ptr %137, align 8
  %139 = getelementptr inbounds { double, double }, ptr %4, i32 0, i32 1
  %140 = extractvalue { double, double } %136, 1
  store double %140, ptr %139, align 8
  br label %141

141:                                              ; preds = %126, %84
  %142 = load { double, double }, ptr %4, align 8
  ret { double, double } %142
}