; Function Attrs: mustprogress uwtable
define internal { double, double } @_ZL23peirce_q_square_inverse5PJ_XYP8PJconsts(double %0, double %1, ptr noundef %2) #0 {
  %4 = fcmp oeq double %0, 0.000000e+00
  %5 = fcmp olt double %1, 0.000000e+00
  %or.cond = select i1 %4, i1 %5, i1 false
  br i1 %or.cond, label %6, label %10

6:                                                ; preds = %3
  %7 = tail call double @llvm.fabs.f64(double %1)
  %8 = fcmp olt double %7, 0x4004F9F953203CD9
  br i1 %8, label %9, label %33

9:                                                ; preds = %6
  br label %33

10:                                               ; preds = %3
  %11 = fcmp ogt double %0, 0.000000e+00
  %12 = tail call double @llvm.fabs.f64(double %1)
  %13 = fcmp olt double %12, 0x3E7AD7F29ABCAF48
  %or.cond43 = select i1 %11, i1 %13, i1 false
  br i1 %or.cond43, label %33, label %14

14:                                               ; preds = %10
  %15 = fcmp olt double %0, 0.000000e+00
  %or.cond45 = select i1 %15, i1 %13, i1 false
  br i1 %or.cond45, label %16, label %18

16:                                               ; preds = %14
  %17 = tail call double @llvm.fmuladd.f64(double %0, double 0x3FE32B9515D17E9A, double 0x3FF921FB54442D18)
  br label %33

18:                                               ; preds = %14
  %19 = tail call double @llvm.fabs.f64(double %0)
  %20 = fcmp olt double %19, 0x3E7AD7F29ABCAF48
  %21 = fcmp ogt double %1, 0.000000e+00
  %or.cond5 = select i1 %20, i1 %21, i1 false
  br i1 %or.cond5, label %33, label %22

22:                                               ; preds = %18
  %23 = fcmp oge double %0, 0.000000e+00
  %24 = fcmp ole double %1, 0.000000e+00
  %or.cond8 = select i1 %23, i1 %24, i1 false
  br i1 %or.cond8, label %25, label %27

25:                                               ; preds = %22
  %26 = fcmp oeq double %1, 0.000000e+00
  %or.cond11 = select i1 %4, i1 %26, i1 false
  br i1 %or.cond11, label %37, label %33

27:                                               ; preds = %22
  %28 = fcmp oge double %1, 0.000000e+00
  %or.cond14 = select i1 %23, i1 %28, i1 false
  br i1 %or.cond14, label %33, label %29

29:                                               ; preds = %27
  %30 = fcmp ole double %0, 0.000000e+00
  %or.cond17 = select i1 %30, i1 %28, i1 false
  br i1 %or.cond17, label %31, label %33

31:                                               ; preds = %29
  %32 = fcmp olt double %19, %12
  %. = select i1 %32, double 0x40069E9565708EFC, double 0xC0069E9565708EFC
  br label %33

33:                                               ; preds = %29, %31, %27, %18, %10, %25, %16, %6, %9
  %.sroa.020.0 = phi double [ 0xBFE921FB54442D18, %9 ], [ 0xBFE921FB54442D18, %6 ], [ 0xC002D97C7F3321D2, %16 ], [ 0.000000e+00, %25 ], [ 0x3FE921FB54442D18, %10 ], [ 0x4002D97C7F3321D2, %18 ], [ 0x3FF921FB54442D18, %27 ], [ %., %31 ], [ 0xBFF921FB54442D18, %29 ]
  %.sroa.11.0 = phi double [ 0x3FE921FB54442D18, %9 ], [ 0.000000e+00, %6 ], [ %17, %16 ], [ 0.000000e+00, %25 ], [ 0.000000e+00, %10 ], [ 0.000000e+00, %18 ], [ 0.000000e+00, %27 ], [ 0.000000e+00, %31 ], [ 0.000000e+00, %29 ]
  %34 = tail call { double, double } @_Z21pj_generic_inverse_2d5PJ_XYP8PJconsts5PJ_LPd(double %0, double %1, ptr noundef %2, double %.sroa.020.0, double %.sroa.11.0, double noundef 1.000000e-10)
  %35 = extractvalue { double, double } %34, 0
  %36 = extractvalue { double, double } %34, 1
  br label %37

37:                                               ; preds = %25, %33
  %.sroa.040.0 = phi double [ %35, %33 ], [ 0.000000e+00, %25 ]
  %.sroa.3.0 = phi double [ %36, %33 ], [ 0x3FF921FB54442D18, %25 ]
  %.fca.0.insert = insertvalue { double, double } poison, double %.sroa.040.0, 0
  %.fca.1.insert = insertvalue { double, double } %.fca.0.insert, double %.sroa.3.0, 1
  ret { double, double } %.fca.1.insert
}